target datalayout = "e-m:e-p270:32:32-p271:32:32-p272:64:64-i64:64-i128:128-f80:128-n8:16:32:64-S128"
target triple = "x86_64-pc-linux-gnu"

@.str.1 = private unnamed_addr constant [27 x i8] c"../openssl/apps/lib/apps.c\00", align 1

; Function Attrs: nounwind uwtable
define dso_local void @clear_free(ptr noundef %0) #0 {
  %2 = alloca ptr, align 8
  store ptr %0, ptr %2, align 8, !tbaa !9
  %3 = load ptr, ptr %2, align 8, !tbaa !9
  %4 = icmp ne ptr %3, null
  br i1 %4, label %5, label %9

5:                                                ; preds = %1
  %6 = load ptr, ptr %2, align 8, !tbaa !9
  %7 = load ptr, ptr %2, align 8, !tbaa !9
  %8 = call i64 @strlen(ptr noundef %7) #14
  call void @CRYPTO_clear_free(ptr noundef %6, i64 noundef %8, ptr noundef @.str.1, i32 noundef 602)
  br label %9

9:                                                ; preds = %5, %1
  ret void
}