; Function Attrs: nounwind uwtable
define dso_local void @clear_free(ptr noundef %0) local_unnamed_addr #0 {
  %.not = icmp eq ptr %0, null
  br i1 %.not, label %4, label %2

2:                                                ; preds = %1
  %3 = tail call i64 @strlen(ptr noundef nonnull dereferenceable(1) %0) #29
  tail call void @CRYPTO_clear_free(ptr noundef nonnull %0, i64 noundef %3, ptr noundef nonnull @.str.1, i32 noundef 602) #27
  br label %4

4:                                                ; preds = %2, %1
  ret void
}